; Function Attrs: mustprogress uwtable
define void @_ZN5Ipopt16FilterLSAcceptor13StartWatchDogEv(ptr nocapture noundef nonnull align 8 dereferenceable(304) %0) unnamed_addr #3 align 2 {
  %2 = getelementptr inbounds i8, ptr %0, i64 40
  %3 = load ptr, ptr %2, align 8
  %4 = load ptr, ptr %3, align 8
  %5 = getelementptr inbounds i8, ptr %4, i64 64
  %6 = load ptr, ptr %5, align 8
  %7 = tail call noundef double %6(ptr noundef nonnull align 8 dereferenceable(2185) %3)
  %8 = getelementptr inbounds i8, ptr %0, i64 224
  store double %7, ptr %8, align 8
  %9 = load ptr, ptr %2, align 8
  %10 = load ptr, ptr %9, align 8
  %11 = getelementptr inbounds i8, ptr %10, i64 48
  %12 = load ptr, ptr %11, align 8
  %13 = tail call noundef double %12(ptr noundef nonnull align 8 dereferenceable(2185) %9)
  %14 = getelementptr inbounds i8, ptr %0, i64 232
  store double %13, ptr %14, align 8
  %15 = load ptr, ptr %2, align 8
  %16 = tail call noundef double @_ZN5Ipopt25IpoptCalculatedQuantities19curr_gradBarrTDeltaEv(ptr noundef nonnull align 8 dereferenceable(2185) %15)
  %17 = getelementptr inbounds i8, ptr %0, i64 240
  store double %16, ptr %17, align 8
  ret void
}